target datalayout = "e-m:e-p270:32:32-p271:32:32-p272:64:64-i64:64-i128:128-f80:128-n8:16:32:64-S128"
target triple = "x86_64-pc-linux-gnu"

; Function Attrs: nounwind uwtable
define void @ff_vvc_channel_range(ptr noundef %0, ptr noundef %1, i32 noundef %2, i8 noundef zeroext %3) #0 {
  %5 = alloca ptr, align 8
  %6 = alloca ptr, align 8
  %7 = alloca i32, align 4
  %8 = alloca i8, align 1
  %9 = alloca i8, align 1
  %10 = alloca i8, align 1
  store ptr %0, ptr %5, align 8, !tbaa !160
  store ptr %1, ptr %6, align 8, !tbaa !160
  store i32 %2, ptr %7, align 4, !tbaa !9
  store i8 %3, ptr %8, align 1, !tbaa !130
  call void @llvm.lifetime.start.p0(i64 1, ptr %9) #7
  %11 = load i8, ptr %8, align 1, !tbaa !130
  %12 = zext i8 %11 to i32
  %13 = icmp ne i32 %12, 0
  br i1 %13, label %14, label %17

14:                                               ; preds = %4
  %15 = load i32, ptr %7, align 4, !tbaa !9
  %16 = icmp ne i32 %15, 1
  br label %17

17:                                               ; preds = %14, %4
  %18 = phi i1 [ false, %4 ], [ %16, %14 ]
  %19 = zext i1 %18 to i8
  store i8 %19, ptr %9, align 1, !tbaa !161
  call void @llvm.lifetime.start.p0(i64 1, ptr %10) #7
  %20 = load i32, ptr %7, align 4, !tbaa !9
  %21 = icmp ne i32 %20, 2
  %22 = zext i1 %21 to i8
  store i8 %22, ptr %10, align 1, !tbaa !161
  %23 = load i8, ptr %10, align 1, !tbaa !161, !range !163, !noundef !164
  %24 = trunc i8 %23 to i1
  %25 = select i1 %24, i32 0, i32 1
  %26 = load ptr, ptr %5, align 8, !tbaa !160
  store i32 %25, ptr %26, align 4, !tbaa !9
  %27 = load i8, ptr %9, align 1, !tbaa !161, !range !163, !noundef !164
  %28 = trunc i8 %27 to i1
  %29 = select i1 %28, i32 3, i32 1
  %30 = load ptr, ptr %6, align 8, !tbaa !160
  store i32 %29, ptr %30, align 4, !tbaa !9
  call void @llvm.lifetime.end.p0(i64 1, ptr %10) #7
  call void @llvm.lifetime.end.p0(i64 1, ptr %9) #7
  ret void
}