; Function Attrs: mustprogress nofree norecurse nosync nounwind willreturn memory(argmem: write) uwtable
define void @ff_vvc_channel_range(ptr noundef writeonly captures(none) initializes((0, 4)) %0, ptr noundef writeonly captures(none) initializes((0, 4)) %1, i32 noundef %2, i8 noundef zeroext %3) local_unnamed_addr #6 {
  %5 = icmp ne i8 %3, 0
  %6 = icmp ne i32 %2, 1
  %7 = and i1 %6, %5
  %.not = icmp eq i32 %2, 2
  %8 = zext i1 %.not to i32
  store i32 %8, ptr %0, align 4, !tbaa !94
  %9 = select i1 %7, i32 3, i32 1
  store i32 %9, ptr %1, align 4, !tbaa !94
  ret void
}